; ModuleID = '23/132.c'
source_filename = "23/132.c"
target datalayout = "e-m:e-p270:32:32-p271:32:32-p272:64:64-i64:64-f80:128-n8:16:32:64-S128"
target triple = "x86_64-pc-linux-gnu"

@.str = private unnamed_addr constant [3 x i8] c"%s\00", align 1
@.str.1 = private unnamed_addr constant [4 x i8] c" %s\00", align 1

; Function Attrs: noinline nounwind uwtable
define dso_local void @main() #0 {
  %1 = alloca [50 x [20 x i8]], align 16
  %2 = alloca i32, align 4
  %3 = alloca i32, align 4
  store i32 0, i32* %2, align 4
  br label %4

4:                                                ; preds = %11, %0
  %5 = load i32, i32* %2, align 4
  %6 = sext i32 %5 to i64
  %7 = getelementptr inbounds [50 x [20 x i8]], [50 x [20 x i8]]* %1, i64 0, i64 %6
  %8 = getelementptr inbounds [20 x i8], [20 x i8]* %7, i64 0, i64 0
  %9 = call i32 (i8*, ...) @__isoc99_scanf(i8* getelementptr inbounds ([3 x i8], [3 x i8]* @.str, i64 0, i64 0), i8* %8)
  %10 = icmp ne i32 %9, -1
  br i1 %10, label %11, label %14

11:                                               ; preds = %4
  %12 = load i32, i32* %2, align 4
  %13 = add nsw i32 %12, 1
  store i32 %13, i32* %2, align 4
  br label %4

14:                                               ; preds = %4
  %15 = load i32, i32* %2, align 4
  %16 = add nsw i32 %15, -1
  store i32 %16, i32* %2, align 4
  %17 = load i32, i32* %2, align 4
  %18 = sext i32 %17 to i64
  %19 = getelementptr inbounds [50 x [20 x i8]], [50 x [20 x i8]]* %1, i64 0, i64 %18
  %20 = getelementptr inbounds [20 x i8], [20 x i8]* %19, i64 0, i64 0
  %21 = call i32 (i8*, ...) @printf(i8* getelementptr inbounds ([3 x i8], [3 x i8]* @.str, i64 0, i64 0), i8* %20)
  %22 = load i32, i32* %2, align 4
  %23 = add nsw i32 %22, -1
  store i32 %23, i32* %2, align 4
  br label %24

24:                                               ; preds = %33, %14
  %25 = load i32, i32* %2, align 4
  %26 = icmp sge i32 %25, 0
  br i1 %26, label %27, label %36

27:                                               ; preds = %24
  %28 = load i32, i32* %2, align 4
  %29 = sext i32 %28 to i64
  %30 = getelementptr inbounds [50 x [20 x i8]], [50 x [20 x i8]]* %1, i64 0, i64 %29
  %31 = getelementptr inbounds [20 x i8], [20 x i8]* %30, i64 0, i64 0
  %32 = call i32 (i8*, ...) @printf(i8* getelementptr inbounds ([4 x i8], [4 x i8]* @.str.1, i64 0, i64 0), i8* %31)
  br label %33

33:                                               ; preds = %27
  %34 = load i32, i32* %2, align 4
  %35 = add nsw i32 %34, -1
  store i32 %35, i32* %2, align 4
  br label %24

36:                                               ; preds = %24
  ret void
}

declare dso_local i32 @__isoc99_scanf(i8*, ...) #1

declare dso_local i32 @printf(i8*, ...) #1


!llvm.module.flags = !{!0}
!llvm.ident = !{!1}

!0 = !{i32 1, !"wchar_size", i32 4}
!1 = !{!"clang version 10.0.0-4ubuntu1 "}
